; Function Attrs: mustprogress nofree norecurse nosync nounwind willreturn memory(argmem: write) uwtable
define internal noundef zeroext i1 @"_ZNSt17_Function_handlerIFbRKN3nix3refINS0_14LegacySSHStore10ConnectionEEEEZNS2_C1ERKNSt7__cxx1112basic_stringIcSt11char_traitsIcESaIcEEESF_RKSt3mapISD_SD_St4lessISD_ESaISt4pairISE_SD_EEEE3$_1E10_M_managerERSt9_Any_dataRKSR_St18_Manager_operation"(ptr nocapture noundef nonnull writeonly align 8 dereferenceable(16) %0, ptr noundef nonnull align 8 dereferenceable(16) %1, i32 noundef %2) #22 align 2 personality ptr @__gxx_personality_v0 {
  switch i32 %2, label %"_ZNSt14_Function_base13_Base_managerIZN3nix14LegacySSHStoreC1ERKNSt7__cxx1112basic_stringIcSt11char_traitsIcESaIcEEESA_RKSt3mapIS8_S8_St4lessIS8_ESaISt4pairIS9_S8_EEEE3$_1E10_M_managerERSt9_Any_dataRKSM_St18_Manager_operation.exit" [
    i32 0, label %"_ZNSt14_Function_base13_Base_managerIZN3nix14LegacySSHStoreC1ERKNSt7__cxx1112basic_stringIcSt11char_traitsIcESaIcEEESA_RKSt3mapIS8_S8_St4lessIS8_ESaISt4pairIS9_S8_EEEE3$_1E10_M_managerERSt9_Any_dataRKSM_St18_Manager_operation.exit.sink.split"
    i32 1, label %4
  ]

4:                                                ; preds = %3
  br label %"_ZNSt14_Function_base13_Base_managerIZN3nix14LegacySSHStoreC1ERKNSt7__cxx1112basic_stringIcSt11char_traitsIcESaIcEEESA_RKSt3mapIS8_S8_St4lessIS8_ESaISt4pairIS9_S8_EEEE3$_1E10_M_managerERSt9_Any_dataRKSM_St18_Manager_operation.exit.sink.split"

"_ZNSt14_Function_base13_Base_managerIZN3nix14LegacySSHStoreC1ERKNSt7__cxx1112basic_stringIcSt11char_traitsIcESaIcEEESA_RKSt3mapIS8_S8_St4lessIS8_ESaISt4pairIS9_S8_EEEE3$_1E10_M_managerERSt9_Any_dataRKSM_St18_Manager_operation.exit.sink.split": ; preds = %3, %4
  %.sink = phi ptr [ %1, %4 ], [ @"_ZTIZN3nix14LegacySSHStoreC1ERKNSt7__cxx1112basic_stringIcSt11char_traitsIcESaIcEEES8_RKSt3mapIS6_S6_St4lessIS6_ESaISt4pairIS7_S6_EEEE3$_1", %3 ]
  store ptr %.sink, ptr %0, align 8
  br label %"_ZNSt14_Function_base13_Base_managerIZN3nix14LegacySSHStoreC1ERKNSt7__cxx1112basic_stringIcSt11char_traitsIcESaIcEEESA_RKSt3mapIS8_S8_St4lessIS8_ESaISt4pairIS9_S8_EEEE3$_1E10_M_managerERSt9_Any_dataRKSM_St18_Manager_operation.exit"

"_ZNSt14_Function_base13_Base_managerIZN3nix14LegacySSHStoreC1ERKNSt7__cxx1112basic_stringIcSt11char_traitsIcESaIcEEESA_RKSt3mapIS8_S8_St4lessIS8_ESaISt4pairIS9_S8_EEEE3$_1E10_M_managerERSt9_Any_dataRKSM_St18_Manager_operation.exit": ; preds = %"_ZNSt14_Function_base13_Base_managerIZN3nix14LegacySSHStoreC1ERKNSt7__cxx1112basic_stringIcSt11char_traitsIcESaIcEEESA_RKSt3mapIS8_S8_St4lessIS8_ESaISt4pairIS9_S8_EEEE3$_1E10_M_managerERSt9_Any_dataRKSM_St18_Manager_operation.exit.sink.split", %3
  ret i1 false
}